target datalayout = "e-m:e-p270:32:32-p271:32:32-p272:64:64-i64:64-i128:128-f80:128-n8:16:32:64-S128"
target triple = "x86_64-pc-linux-gnu"

%struct.ossl_store_info_st = type { i32, %union.anon.3 }
%union.anon.3 = type { %struct.anon.4 }
%struct.anon.4 = type { ptr, ptr }

@.str.2 = private unnamed_addr constant [36 x i8] c"../openssl/crypto/store/store_lib.c\00", align 1
@__func__.OSSL_STORE_INFO_set0_NAME_description = private unnamed_addr constant [38 x i8] c"OSSL_STORE_INFO_set0_NAME_description\00", align 1

; Function Attrs: nounwind uwtable
define i32 @OSSL_STORE_INFO_set0_NAME_description(ptr noundef %0, ptr noundef %1) #0 {
  %3 = alloca i32, align 4
  %4 = alloca ptr, align 8
  %5 = alloca ptr, align 8
  store ptr %0, ptr %4, align 8, !tbaa !77
  store ptr %1, ptr %5, align 8, !tbaa !3
  %6 = load ptr, ptr %4, align 8, !tbaa !77
  %7 = getelementptr inbounds nuw %struct.ossl_store_info_st, ptr %6, i32 0, i32 0
  %8 = load i32, ptr %7, align 8, !tbaa !88
  %9 = icmp ne i32 %8, 1
  br i1 %9, label %10, label %11

10:                                               ; preds = %2
  call void @ERR_new()
  call void @ERR_set_debug(ptr noundef @.str.2, i32 noundef 637, ptr noundef @__func__.OSSL_STORE_INFO_set0_NAME_description)
  call void (i32, i32, ptr, ...) @ERR_set_error(i32 noundef 44, i32 noundef 524550, ptr noundef null)
  store i32 0, ptr %3, align 4
  br label %16

11:                                               ; preds = %2
  %12 = load ptr, ptr %5, align 8, !tbaa !3
  %13 = load ptr, ptr %4, align 8, !tbaa !77
  %14 = getelementptr inbounds nuw %struct.ossl_store_info_st, ptr %13, i32 0, i32 1
  %15 = getelementptr inbounds nuw %struct.anon.4, ptr %14, i32 0, i32 1
  store ptr %12, ptr %15, align 8, !tbaa !25
  store i32 1, ptr %3, align 4
  br label %16

16:                                               ; preds = %11, %10
  %17 = load i32, ptr %3, align 4
  ret i32 %17
}