; Function Attrs: nounwind uwtable
define range(i32 0, 2) i32 @OSSL_STORE_INFO_set0_NAME_description(ptr noundef captures(none) %0, ptr noundef %1) local_unnamed_addr #0 {
  %3 = load i32, ptr %0, align 8, !tbaa !68
  %.not = icmp eq i32 %3, 1
  br i1 %.not, label %5, label %4

4:                                                ; preds = %2
  tail call void @ERR_new() #9
  tail call void @ERR_set_debug(ptr noundef nonnull @.str.2, i32 noundef 637, ptr noundef nonnull @__func__.OSSL_STORE_INFO_set0_NAME_description) #9
  tail call void (i32, i32, ptr, ...) @ERR_set_error(i32 noundef 44, i32 noundef 524550, ptr noundef null) #9
  br label %7

5:                                                ; preds = %2
  %6 = getelementptr inbounds nuw i8, ptr %0, i64 16
  store ptr %1, ptr %6, align 8, !tbaa !8
  br label %7

7:                                                ; preds = %5, %4
  %.0 = phi i32 [ 0, %4 ], [ 1, %5 ]
  ret i32 %.0
}